; ModuleID = '10/1624.c'
source_filename = "10/1624.c"
target datalayout = "e-m:e-p270:32:32-p271:32:32-p272:64:64-i64:64-f80:128-n8:16:32:64-S128"
target triple = "x86_64-pc-linux-gnu"

@.str = private unnamed_addr constant [3 x i8] c"%d\00", align 1

; Function Attrs: noinline nounwind uwtable
define dso_local i32 @zui(i32 %0, i32 %1, i32* %2) #0 {
  %4 = alloca i32, align 4
  %5 = alloca i32, align 4
  %6 = alloca i32*, align 8
  %7 = alloca i32, align 4
  %8 = alloca i32, align 4
  %9 = alloca i32, align 4
  store i32 %0, i32* %4, align 4
  store i32 %1, i32* %5, align 4
  store i32* %2, i32** %6, align 8
  store i32 1, i32* %7, align 4
  %10 = load i32, i32* %5, align 4
  %11 = add nsw i32 %10, 1
  store i32 %11, i32* %8, align 4
  store i32 0, i32* %9, align 4
  %12 = load i32, i32* %5, align 4
  %13 = load i32, i32* %4, align 4
  %14 = icmp eq i32 %12, %13
  br i1 %14, label %15, label %16

15:                                               ; preds = %3
  store i32 1, i32* %7, align 4
  br label %60

16:                                               ; preds = %3
  %17 = load i32, i32* %5, align 4
  %18 = add nsw i32 %17, 1
  store i32 %18, i32* %8, align 4
  br label %19

19:                                               ; preds = %53, %16
  %20 = load i32, i32* %8, align 4
  %21 = load i32, i32* %4, align 4
  %22 = icmp sle i32 %20, %21
  br i1 %22, label %23, label %56

23:                                               ; preds = %19
  %24 = load i32*, i32** %6, align 8
  %25 = load i32, i32* %4, align 4
  %26 = load i32, i32* %5, align 4
  %27 = sub nsw i32 %25, %26
  %28 = sext i32 %27 to i64
  %29 = getelementptr inbounds i32, i32* %24, i64 %28
  %30 = load i32, i32* %29, align 4
  %31 = load i32*, i32** %6, align 8
  %32 = load i32, i32* %4, align 4
  %33 = load i32, i32* %8, align 4
  %34 = sub nsw i32 %32, %33
  %35 = sext i32 %34 to i64
  %36 = getelementptr inbounds i32, i32* %31, i64 %35
  %37 = load i32, i32* %36, align 4
  %38 = icmp sle i32 %30, %37
  br i1 %38, label %39, label %52

39:                                               ; preds = %23
  %40 = load i32, i32* %9, align 4
  %41 = load i32, i32* %4, align 4
  %42 = load i32, i32* %8, align 4
  %43 = load i32*, i32** %6, align 8
  %44 = call i32 @zui(i32 %41, i32 %42, i32* %43)
  %45 = icmp slt i32 %40, %44
  br i1 %45, label %46, label %51

46:                                               ; preds = %39
  %47 = load i32, i32* %4, align 4
  %48 = load i32, i32* %8, align 4
  %49 = load i32*, i32** %6, align 8
  %50 = call i32 @zui(i32 %47, i32 %48, i32* %49)
  store i32 %50, i32* %9, align 4
  br label %51

51:                                               ; preds = %46, %39
  br label %52

52:                                               ; preds = %51, %23
  br label %53

53:                                               ; preds = %52
  %54 = load i32, i32* %8, align 4
  %55 = add nsw i32 %54, 1
  store i32 %55, i32* %8, align 4
  br label %19

56:                                               ; preds = %19
  %57 = load i32, i32* %7, align 4
  %58 = load i32, i32* %9, align 4
  %59 = add nsw i32 %57, %58
  store i32 %59, i32* %7, align 4
  br label %60

60:                                               ; preds = %56, %15
  %61 = load i32, i32* %7, align 4
  ret i32 %61
}

; Function Attrs: noinline nounwind uwtable
define dso_local i32 @main() #0 {
  %1 = alloca i32, align 4
  %2 = alloca i32, align 4
  %3 = alloca i32, align 4
  %4 = alloca [25 x i32], align 16
  %5 = alloca i32, align 4
  %6 = alloca i32, align 4
  store i32 0, i32* %1, align 4
  store i32 0, i32* %5, align 4
  %7 = call i32 (i8*, ...) @__isoc99_scanf(i8* getelementptr inbounds ([3 x i8], [3 x i8]* @.str, i64 0, i64 0), i32* %3)
  store i32 0, i32* %2, align 4
  br label %8

8:                                                ; preds = %17, %0
  %9 = load i32, i32* %2, align 4
  %10 = load i32, i32* %3, align 4
  %11 = icmp slt i32 %9, %10
  br i1 %11, label %12, label %20

12:                                               ; preds = %8
  %13 = load i32, i32* %2, align 4
  %14 = sext i32 %13 to i64
  %15 = getelementptr inbounds [25 x i32], [25 x i32]* %4, i64 0, i64 %14
  %16 = call i32 (i8*, ...) @__isoc99_scanf(i8* getelementptr inbounds ([3 x i8], [3 x i8]* @.str, i64 0, i64 0), i32* %15)
  br label %17

17:                                               ; preds = %12
  %18 = load i32, i32* %2, align 4
  %19 = add nsw i32 %18, 1
  store i32 %19, i32* %2, align 4
  br label %8

20:                                               ; preds = %8
  store i32 1, i32* %2, align 4
  br label %21

21:                                               ; preds = %36, %20
  %22 = load i32, i32* %2, align 4
  %23 = load i32, i32* %3, align 4
  %24 = icmp slt i32 %22, %23
  br i1 %24, label %25, label %39

25:                                               ; preds = %21
  %26 = load i32, i32* %3, align 4
  %27 = load i32, i32* %2, align 4
  %28 = getelementptr inbounds [25 x i32], [25 x i32]* %4, i64 0, i64 0
  %29 = call i32 @zui(i32 %26, i32 %27, i32* %28)
  store i32 %29, i32* %6, align 4
  %30 = load i32, i32* %6, align 4
  %31 = load i32, i32* %5, align 4
  %32 = icmp sgt i32 %30, %31
  br i1 %32, label %33, label %35

33:                                               ; preds = %25
  %34 = load i32, i32* %6, align 4
  store i32 %34, i32* %5, align 4
  br label %35

35:                                               ; preds = %33, %25
  br label %36

36:                                               ; preds = %35
  %37 = load i32, i32* %2, align 4
  %38 = add nsw i32 %37, 1
  store i32 %38, i32* %2, align 4
  br label %21

39:                                               ; preds = %21
  %40 = load i32, i32* %5, align 4
  %41 = call i32 (i8*, ...) @printf(i8* getelementptr inbounds ([3 x i8], [3 x i8]* @.str, i64 0, i64 0), i32 %40)
  ret i32 0
}

declare dso_local i32 @__isoc99_scanf(i8*, ...) #1

declare dso_local i32 @printf(i8*, ...) #1


!llvm.module.flags = !{!0}
!llvm.ident = !{!1}

!0 = !{i32 1, !"wchar_size", i32 4}
!1 = !{!"clang version 10.0.0-4ubuntu1 "}
